target datalayout = "e-m:e-p270:32:32-p271:32:32-p272:64:64-i64:64-i128:128-f80:128-n8:16:32:64-S128"
target triple = "x86_64-pc-linux-gnu"

%struct.GCtrace = type { %struct.GCRef, i8, i8, i16, i32, i32, %struct.GCRef, ptr, i32, i32, ptr, ptr, %struct.GCRef, %struct.MRef, i32, i32, ptr, i32, i16, i16, i16, i16, i16, i16, i16, i8, i8, i8, i8 }
%struct.GCRef = type { i64 }
%struct.MRef = type { i64 }
%struct.jit_State = type { %struct.GCtrace, ptr, ptr, ptr, ptr, ptr, ptr, i32, i32, i32, i8, i8, %struct.IRType1, i8, %struct.FoldState, ptr, i32, i32, i32, i32, i32, i32, i32, [1 x i32], [5 x %union.TValue], [3 x %union.TValue], ptr, i32, i32, i32, i32, ptr, ptr, i32, i32, i8, ptr, i32, i32, i16, [101 x i16], [258 x i32], [15 x i32], [16 x ptr], [64 x %struct.HotPenalty], i32, [16 x %struct.BPropEntry], i32, %struct.ScEvEntry, ptr, i32, i32, i32, ptr, i32, i32, ptr, ptr, ptr, i64, i64, %union.TValue, ptr, i32, i32 }
%struct.IRType1 = type { i8 }
%struct.FoldState = type { %union.IRIns, [2 x %union.IRIns], [2 x %union.IRIns] }
%union.IRIns = type { %struct.GCRef }
%struct.HotPenalty = type { %struct.MRef, i16, i16 }
%struct.BPropEntry = type { i16, i16, i32 }
%struct.ScEvEntry = type { %struct.MRef, i16, i16, i16, i16, %struct.IRType1, i8 }
%union.TValue = type { i64 }
%struct.ASMState = type { [32 x i32], ptr, ptr, ptr, ptr, %struct.x86ModRM, i32, i32, i32, i32, i32, i32, i32, i32, i32, i32, i32, i32, i32, i32, i32, i32, i64, i64, i32, i32, i32, i32, i32, ptr, ptr, ptr, ptr, ptr, ptr, ptr, ptr, ptr, [32 x i16], [250 x i16] }
%struct.x86ModRM = type { i32, i8, i8, i8 }
%struct.anon.0 = type { i32, %struct.IRType1, i8, i8, i8 }
%struct.anon = type { i16, i16, i16, i16 }

; Function Attrs: alwaysinline nounwind uwtable
define internal ptr @emit_op(i32 noundef %0, i32 noundef %1, i32 noundef %2, i32 noundef %3, ptr noundef %4, i32 noundef %5) #3 {
  %7 = alloca ptr, align 8
  %8 = alloca i32, align 4
  %9 = alloca i32, align 4
  %10 = alloca i32, align 4
  %11 = alloca i32, align 4
  %12 = alloca ptr, align 8
  %13 = alloca i32, align 4
  %14 = alloca i32, align 4
  %15 = alloca i32, align 4
  %16 = alloca i32, align 4
  store i32 %0, ptr %8, align 4, !tbaa !11
  store i32 %1, ptr %9, align 4, !tbaa !11
  store i32 %2, ptr %10, align 4, !tbaa !11
  store i32 %3, ptr %11, align 4, !tbaa !11
  store ptr %4, ptr %12, align 8, !tbaa !13
  store i32 %5, ptr %13, align 4, !tbaa !11
  call void @llvm.lifetime.start.p0(i64 4, ptr %14) #11
  %17 = load i32, ptr %8, align 4, !tbaa !11
  %18 = trunc i32 %17 to i8
  %19 = sext i8 %18 to i32
  store i32 %19, ptr %14, align 4, !tbaa !11
  %20 = load i32, ptr %14, align 4, !tbaa !11
  %21 = icmp eq i32 %20, -60
  br i1 %21, label %22, label %48

22:                                               ; preds = %6
  %23 = load i32, ptr %9, align 4, !tbaa !11
  %24 = lshr i32 %23, 1
  %25 = and i32 %24, 4
  %26 = load i32, ptr %11, align 4, !tbaa !11
  %27 = lshr i32 %26, 2
  %28 = and i32 %27, 2
  %29 = add i32 %25, %28
  %30 = load i32, ptr %10, align 4, !tbaa !11
  %31 = lshr i32 %30, 3
  %32 = and i32 %31, 1
  %33 = add i32 %29, %32
  %34 = shl i32 %33, 13
  %35 = load i32, ptr %8, align 4, !tbaa !11
  %36 = xor i32 %35, %34
  store i32 %36, ptr %8, align 4, !tbaa !11
  %37 = load i32, ptr %8, align 4, !tbaa !11
  %38 = load ptr, ptr %12, align 8, !tbaa !13
  %39 = load i32, ptr %13, align 4, !tbaa !11
  %40 = sext i32 %39 to i64
  %41 = getelementptr inbounds i8, ptr %38, i64 %40
  %42 = getelementptr inbounds i8, ptr %41, i64 -5
  store i32 %37, ptr %42, align 4, !tbaa !11
  %43 = load ptr, ptr %12, align 8, !tbaa !13
  %44 = load i32, ptr %13, align 4, !tbaa !11
  %45 = sext i32 %44 to i64
  %46 = getelementptr inbounds i8, ptr %43, i64 %45
  %47 = getelementptr inbounds i8, ptr %46, i64 -5
  store ptr %47, ptr %7, align 8
  store i32 1, ptr %15, align 4
  br label %138

48:                                               ; preds = %6
  %49 = load i32, ptr %8, align 4, !tbaa !11
  %50 = call i1 @llvm.is.constant.i32(i32 %49)
  br i1 %50, label %51, label %63

51:                                               ; preds = %48
  %52 = load i32, ptr %14, align 4, !tbaa !11
  %53 = icmp eq i32 %52, -2
  br i1 %53, label %54, label %63

54:                                               ; preds = %51
  %55 = load i32, ptr %8, align 4, !tbaa !11
  %56 = lshr i32 %55, 24
  %57 = trunc i32 %56 to i8
  %58 = load ptr, ptr %12, align 8, !tbaa !13
  %59 = load i32, ptr %13, align 4, !tbaa !11
  %60 = sub nsw i32 %59, 2
  %61 = sext i32 %60 to i64
  %62 = getelementptr inbounds i8, ptr %58, i64 %61
  store i8 %57, ptr %62, align 1, !tbaa !25
  br label %86

63:                                               ; preds = %51, %48
  %64 = load i32, ptr %8, align 4, !tbaa !11
  %65 = call i1 @llvm.is.constant.i32(i32 %64)
  br i1 %65, label %66, label %78

66:                                               ; preds = %63
  %67 = load i32, ptr %14, align 4, !tbaa !11
  %68 = icmp eq i32 %67, -3
  br i1 %68, label %69, label %78

69:                                               ; preds = %66
  %70 = load i32, ptr %8, align 4, !tbaa !11
  %71 = lshr i32 %70, 16
  %72 = trunc i32 %71 to i16
  %73 = load ptr, ptr %12, align 8, !tbaa !13
  %74 = load i32, ptr %13, align 4, !tbaa !11
  %75 = sext i32 %74 to i64
  %76 = getelementptr inbounds i8, ptr %73, i64 %75
  %77 = getelementptr inbounds i8, ptr %76, i64 -3
  store i16 %72, ptr %77, align 2, !tbaa !29
  br label %85

78:                                               ; preds = %66, %63
  %79 = load i32, ptr %8, align 4, !tbaa !11
  %80 = load ptr, ptr %12, align 8, !tbaa !13
  %81 = load i32, ptr %13, align 4, !tbaa !11
  %82 = sext i32 %81 to i64
  %83 = getelementptr inbounds i8, ptr %80, i64 %82
  %84 = getelementptr inbounds i8, ptr %83, i64 -5
  store i32 %79, ptr %84, align 4, !tbaa !11
  br label %85

85:                                               ; preds = %78, %69
  br label %86

86:                                               ; preds = %85, %54
  %87 = load i32, ptr %14, align 4, !tbaa !11
  %88 = load i32, ptr %13, align 4, !tbaa !11
  %89 = add nsw i32 %87, %88
  %90 = load ptr, ptr %12, align 8, !tbaa !13
  %91 = sext i32 %89 to i64
  %92 = getelementptr inbounds i8, ptr %90, i64 %91
  store ptr %92, ptr %12, align 8, !tbaa !13
  call void @llvm.lifetime.start.p0(i64 4, ptr %16) #11
  %93 = load i32, ptr %9, align 4, !tbaa !11
  %94 = lshr i32 %93, 1
  %95 = and i32 %94, 260
  %96 = add i32 64, %95
  %97 = load i32, ptr %11, align 4, !tbaa !11
  %98 = lshr i32 %97, 2
  %99 = and i32 %98, 2
  %100 = add i32 %96, %99
  %101 = load i32, ptr %10, align 4, !tbaa !11
  %102 = lshr i32 %101, 3
  %103 = and i32 %102, 1
  %104 = add i32 %100, %103
  store i32 %104, ptr %16, align 4, !tbaa !11
  %105 = load i32, ptr %16, align 4, !tbaa !11
  %106 = icmp ne i32 %105, 64
  br i1 %106, label %107, label %136

107:                                              ; preds = %86
  %108 = load i32, ptr %9, align 4, !tbaa !11
  %109 = lshr i32 %108, 16
  %110 = load i32, ptr %16, align 4, !tbaa !11
  %111 = or i32 %110, %109
  store i32 %111, ptr %16, align 4, !tbaa !11
  %112 = load i32, ptr %14, align 4, !tbaa !11
  %113 = icmp eq i32 %112, -4
  br i1 %113, label %114, label %122

114:                                              ; preds = %107
  %115 = load i32, ptr %16, align 4, !tbaa !11
  %116 = trunc i32 %115 to i8
  %117 = load ptr, ptr %12, align 8, !tbaa !13
  store i8 %116, ptr %117, align 1, !tbaa !25
  %118 = load i32, ptr %8, align 4, !tbaa !11
  %119 = lshr i32 %118, 8
  %120 = trunc i32 %119 to i8
  %121 = zext i8 %120 to i32
  store i32 %121, ptr %16, align 4, !tbaa !11
  br label %131

122:                                              ; preds = %107
  %123 = load i32, ptr %8, align 4, !tbaa !11
  %124 = and i32 %123, 16777215
  %125 = icmp eq i32 %124, 6684925
  br i1 %125, label %126, label %130

126:                                              ; preds = %122
  %127 = load i32, ptr %16, align 4, !tbaa !11
  %128 = trunc i32 %127 to i8
  %129 = load ptr, ptr %12, align 8, !tbaa !13
  store i8 %128, ptr %129, align 1, !tbaa !25
  store i32 102, ptr %16, align 4, !tbaa !11
  br label %130

130:                                              ; preds = %126, %122
  br label %131

131:                                              ; preds = %130, %114
  %132 = load i32, ptr %16, align 4, !tbaa !11
  %133 = trunc i32 %132 to i8
  %134 = load ptr, ptr %12, align 8, !tbaa !13
  %135 = getelementptr inbounds i8, ptr %134, i32 -1
  store ptr %135, ptr %12, align 8, !tbaa !13
  store i8 %133, ptr %135, align 1, !tbaa !25
  br label %136

136:                                              ; preds = %131, %86
  call void @llvm.lifetime.end.p0(i64 4, ptr %16) #11
  %137 = load ptr, ptr %12, align 8, !tbaa !13
  store ptr %137, ptr %7, align 8
  store i32 1, ptr %15, align 4
  br label %138

138:                                              ; preds = %136, %22
  call void @llvm.lifetime.end.p0(i64 4, ptr %14) #11
  %139 = load ptr, ptr %7, align 8
  ret ptr %139
}

; Function Attrs: alwaysinline nounwind uwtable
define internal void @lj_ir_set_(ptr noundef %0, i16 noundef zeroext %1, i16 noundef zeroext %2, i16 noundef zeroext %3) #3 {
  %5 = alloca ptr, align 8
  %6 = alloca i16, align 2
  %7 = alloca i16, align 2
  %8 = alloca i16, align 2
  store ptr %0, ptr %5, align 8, !tbaa !4
  store i16 %1, ptr %6, align 2, !tbaa !29
  store i16 %2, ptr %7, align 2, !tbaa !29
  store i16 %3, ptr %8, align 2, !tbaa !29
  %9 = load i16, ptr %6, align 2, !tbaa !29
  %10 = load ptr, ptr %5, align 8, !tbaa !4
  %11 = getelementptr inbounds nuw %struct.jit_State, ptr %10, i32 0, i32 14
  %12 = getelementptr inbounds nuw %struct.FoldState, ptr %11, i32 0, i32 0
  %13 = getelementptr inbounds nuw %struct.anon, ptr %12, i32 0, i32 2
  store i16 %9, ptr %13, align 4, !tbaa !25
  %14 = load i16, ptr %7, align 2, !tbaa !29
  %15 = load ptr, ptr %5, align 8, !tbaa !4
  %16 = getelementptr inbounds nuw %struct.jit_State, ptr %15, i32 0, i32 14
  %17 = getelementptr inbounds nuw %struct.FoldState, ptr %16, i32 0, i32 0
  %18 = getelementptr inbounds nuw %struct.anon, ptr %17, i32 0, i32 0
  store i16 %14, ptr %18, align 8, !tbaa !25
  %19 = load i16, ptr %8, align 2, !tbaa !29
  %20 = load ptr, ptr %5, align 8, !tbaa !4
  %21 = getelementptr inbounds nuw %struct.jit_State, ptr %20, i32 0, i32 14
  %22 = getelementptr inbounds nuw %struct.FoldState, ptr %21, i32 0, i32 0
  %23 = getelementptr inbounds nuw %struct.anon, ptr %22, i32 0, i32 1
  store i16 %19, ptr %23, align 2, !tbaa !25
  ret void
}

; Function Attrs: nounwind uwtable
define internal void @emit_rr(ptr noundef %0, i32 noundef %1, i32 noundef %2, i32 noundef %3) #0 {
  %5 = alloca ptr, align 8
  %6 = alloca i32, align 4
  %7 = alloca i32, align 4
  %8 = alloca i32, align 4
  %9 = alloca ptr, align 8
  store ptr %0, ptr %5, align 8, !tbaa !33
  store i32 %1, ptr %6, align 4, !tbaa !11
  store i32 %2, ptr %7, align 4, !tbaa !11
  store i32 %3, ptr %8, align 4, !tbaa !11
  call void @llvm.lifetime.start.p0(i64 8, ptr %9) #11
  %10 = load ptr, ptr %5, align 8, !tbaa !33
  %11 = getelementptr inbounds nuw %struct.ASMState, ptr %10, i32 0, i32 1
  %12 = load ptr, ptr %11, align 8, !tbaa !67
  store ptr %12, ptr %9, align 8, !tbaa !13
  %13 = load i32, ptr %7, align 4, !tbaa !11
  %14 = and i32 %13, 7
  %15 = shl i32 %14, 3
  %16 = add i32 192, %15
  %17 = load i32, ptr %8, align 4, !tbaa !11
  %18 = and i32 %17, 7
  %19 = add i32 %16, %18
  %20 = trunc i32 %19 to i8
  %21 = load ptr, ptr %9, align 8, !tbaa !13
  %22 = getelementptr inbounds i8, ptr %21, i64 -1
  store i8 %20, ptr %22, align 1, !tbaa !25
  %23 = load i32, ptr %6, align 4, !tbaa !11
  %24 = load i32, ptr %7, align 4, !tbaa !11
  %25 = load i32, ptr %8, align 4, !tbaa !11
  %26 = load ptr, ptr %9, align 8, !tbaa !13
  %27 = call ptr @emit_op(i32 noundef %23, i32 noundef %24, i32 noundef %25, i32 noundef 0, ptr noundef %26, i32 noundef 0)
  %28 = load ptr, ptr %5, align 8, !tbaa !33
  %29 = getelementptr inbounds nuw %struct.ASMState, ptr %28, i32 0, i32 1
  store ptr %27, ptr %29, align 8, !tbaa !67
  call void @llvm.lifetime.end.p0(i64 8, ptr %9) #11
  ret void
}

; Function Attrs: nounwind uwtable
define internal void @ra_addrename(ptr noundef %0, i32 noundef %1, i32 noundef %2, i32 noundef %3) #0 {
  %5 = alloca ptr, align 8
  %6 = alloca i32, align 4
  %7 = alloca i32, align 4
  %8 = alloca i32, align 4
  %9 = alloca i32, align 4
  store ptr %0, ptr %5, align 8, !tbaa !33
  store i32 %1, ptr %6, align 4, !tbaa !11
  store i32 %2, ptr %7, align 4, !tbaa !11
  store i32 %3, ptr %8, align 4, !tbaa !11
  call void @llvm.lifetime.start.p0(i64 4, ptr %9) #11
  %10 = load ptr, ptr %5, align 8, !tbaa !33
  %11 = getelementptr inbounds nuw %struct.ASMState, ptr %10, i32 0, i32 4
  %12 = load ptr, ptr %11, align 8, !tbaa !51
  %13 = load i32, ptr %7, align 4, !tbaa !11
  %14 = trunc i32 %13 to i16
  %15 = load i32, ptr %8, align 4, !tbaa !11
  %16 = trunc i32 %15 to i16
  call void @lj_ir_set_(ptr noundef %12, i16 noundef zeroext 5120, i16 noundef zeroext %14, i16 noundef zeroext %16)
  %17 = load ptr, ptr %5, align 8, !tbaa !33
  %18 = getelementptr inbounds nuw %struct.ASMState, ptr %17, i32 0, i32 4
  %19 = load ptr, ptr %18, align 8, !tbaa !51
  %20 = call i32 @lj_ir_emit(ptr noundef %19)
  %21 = trunc i32 %20 to i16
  %22 = zext i16 %21 to i32
  store i32 %22, ptr %9, align 4, !tbaa !11
  %23 = load i32, ptr %6, align 4, !tbaa !11
  %24 = trunc i32 %23 to i8
  %25 = load ptr, ptr %5, align 8, !tbaa !33
  %26 = getelementptr inbounds nuw %struct.ASMState, ptr %25, i32 0, i32 4
  %27 = load ptr, ptr %26, align 8, !tbaa !51
  %28 = getelementptr inbounds nuw %struct.jit_State, ptr %27, i32 0, i32 0
  %29 = getelementptr inbounds nuw %struct.GCtrace, ptr %28, i32 0, i32 7
  %30 = load ptr, ptr %29, align 8, !tbaa !42
  %31 = load i32, ptr %9, align 4, !tbaa !11
  %32 = zext i32 %31 to i64
  %33 = getelementptr inbounds nuw %union.IRIns, ptr %30, i64 %32
  %34 = getelementptr inbounds nuw %struct.anon.0, ptr %33, i32 0, i32 3
  store i8 %24, ptr %34, align 2, !tbaa !25
  %35 = load ptr, ptr %5, align 8, !tbaa !33
  %36 = getelementptr inbounds nuw %struct.ASMState, ptr %35, i32 0, i32 4
  %37 = load ptr, ptr %36, align 8, !tbaa !51
  %38 = getelementptr inbounds nuw %struct.jit_State, ptr %37, i32 0, i32 0
  %39 = getelementptr inbounds nuw %struct.GCtrace, ptr %38, i32 0, i32 7
  %40 = load ptr, ptr %39, align 8, !tbaa !42
  %41 = load i32, ptr %9, align 4, !tbaa !11
  %42 = zext i32 %41 to i64
  %43 = getelementptr inbounds nuw %union.IRIns, ptr %40, i64 %42
  %44 = getelementptr inbounds nuw %struct.anon.0, ptr %43, i32 0, i32 4
  store i8 0, ptr %44, align 1, !tbaa !25
  call void @llvm.lifetime.end.p0(i64 4, ptr %9) #11
  ret void
}

; Function Attrs: nounwind uwtable
define internal void @emit_movrr(ptr noundef %0, ptr noundef %1, i32 noundef %2, i32 noundef %3) #0 {
  %5 = alloca ptr, align 8
  %6 = alloca ptr, align 8
  %7 = alloca i32, align 4
  %8 = alloca i32, align 4
  store ptr %0, ptr %5, align 8, !tbaa !33
  store ptr %1, ptr %6, align 8, !tbaa !37
  store i32 %2, ptr %7, align 4, !tbaa !11
  store i32 %3, ptr %8, align 4, !tbaa !11
  %9 = load i32, ptr %7, align 4, !tbaa !11
  %10 = icmp ult i32 %9, 16
  br i1 %10, label %11, label %26

11:                                               ; preds = %4
  %12 = load ptr, ptr %5, align 8, !tbaa !33
  %13 = load i32, ptr %7, align 4, !tbaa !11
  %14 = load ptr, ptr %6, align 8, !tbaa !37
  %15 = getelementptr inbounds nuw %struct.anon.0, ptr %14, i32 0, i32 1
  %16 = getelementptr inbounds nuw %struct.IRType1, ptr %15, i32 0, i32 0
  %17 = load i8, ptr %16, align 4, !tbaa !25
  %18 = zext i8 %17 to i32
  %19 = and i32 %18, 31
  %20 = lshr i32 6315993, %19
  %21 = and i32 %20, 1
  %22 = icmp ne i32 %21, 0
  %23 = select i1 %22, i32 524800, i32 0
  %24 = add i32 %13, %23
  %25 = load i32, ptr %8, align 4, !tbaa !11
  call void @emit_rr(ptr noundef %12, i32 noundef -1962934018, i32 noundef %24, i32 noundef %25)
  br label %30

26:                                               ; preds = %4
  %27 = load ptr, ptr %5, align 8, !tbaa !33
  %28 = load i32, ptr %7, align 4, !tbaa !11
  %29 = load i32, ptr %8, align 4, !tbaa !11
  call void @emit_rr(ptr noundef %27, i32 noundef 672071933, i32 noundef %28, i32 noundef %29)
  br label %30

30:                                               ; preds = %26, %11
  ret void
}

; Function Attrs: nounwind uwtable
define internal void @ra_rename(ptr noundef %0, i32 noundef %1, i32 noundef %2) #0 {
  %4 = alloca ptr, align 8
  %5 = alloca i32, align 4
  %6 = alloca i32, align 4
  %7 = alloca i32, align 4
  %8 = alloca ptr, align 8
  store ptr %0, ptr %4, align 8, !tbaa !33
  store i32 %1, ptr %5, align 4, !tbaa !11
  store i32 %2, ptr %6, align 4, !tbaa !11
  call void @llvm.lifetime.start.p0(i64 4, ptr %7) #11
  %9 = load ptr, ptr %4, align 8, !tbaa !33
  %10 = getelementptr inbounds nuw %struct.ASMState, ptr %9, i32 0, i32 0
  %11 = load i32, ptr %5, align 4, !tbaa !11
  %12 = zext i32 %11 to i64
  %13 = getelementptr inbounds nuw [32 x i32], ptr %10, i64 0, i64 %12
  %14 = load i32, ptr %13, align 4, !tbaa !11
  %15 = load ptr, ptr %4, align 8, !tbaa !33
  %16 = getelementptr inbounds nuw %struct.ASMState, ptr %15, i32 0, i32 0
  %17 = load i32, ptr %6, align 4, !tbaa !11
  %18 = zext i32 %17 to i64
  %19 = getelementptr inbounds nuw [32 x i32], ptr %16, i64 0, i64 %18
  store i32 %14, ptr %19, align 4, !tbaa !11
  %20 = trunc i32 %14 to i16
  %21 = zext i16 %20 to i32
  store i32 %21, ptr %7, align 4, !tbaa !11
  call void @llvm.lifetime.start.p0(i64 8, ptr %8) #11
  %22 = load ptr, ptr %4, align 8, !tbaa !33
  %23 = getelementptr inbounds nuw %struct.ASMState, ptr %22, i32 0, i32 3
  %24 = load ptr, ptr %23, align 8, !tbaa !70
  %25 = load i32, ptr %7, align 4, !tbaa !11
  %26 = zext i32 %25 to i64
  %27 = getelementptr inbounds nuw %union.IRIns, ptr %24, i64 %26
  store ptr %27, ptr %8, align 8, !tbaa !37
  %28 = load i32, ptr %6, align 4, !tbaa !11
  %29 = trunc i32 %28 to i8
  %30 = load ptr, ptr %8, align 8, !tbaa !37
  %31 = getelementptr inbounds nuw %struct.anon.0, ptr %30, i32 0, i32 3
  store i8 %29, ptr %31, align 2, !tbaa !25
  %32 = load ptr, ptr %4, align 8, !tbaa !33
  %33 = getelementptr inbounds nuw %struct.ASMState, ptr %32, i32 0, i32 0
  %34 = load i32, ptr %5, align 4, !tbaa !11
  %35 = zext i32 %34 to i64
  %36 = getelementptr inbounds nuw [32 x i32], ptr %33, i64 0, i64 %35
  store i32 0, ptr %36, align 4, !tbaa !11
  %37 = load i32, ptr %5, align 4, !tbaa !11
  %38 = shl i32 1, %37
  %39 = load ptr, ptr %4, align 8, !tbaa !33
  %40 = getelementptr inbounds nuw %struct.ASMState, ptr %39, i32 0, i32 6
  %41 = load i32, ptr %40, align 8, !tbaa !84
  %42 = or i32 %41, %38
  store i32 %42, ptr %40, align 8, !tbaa !84
  %43 = load i32, ptr %5, align 4, !tbaa !11
  %44 = shl i32 1, %43
  %45 = load ptr, ptr %4, align 8, !tbaa !33
  %46 = getelementptr inbounds nuw %struct.ASMState, ptr %45, i32 0, i32 7
  %47 = load i32, ptr %46, align 4, !tbaa !106
  %48 = or i32 %47, %44
  store i32 %48, ptr %46, align 4, !tbaa !106
  %49 = load i32, ptr %6, align 4, !tbaa !11
  %50 = shl i32 1, %49
  %51 = xor i32 %50, -1
  %52 = load ptr, ptr %4, align 8, !tbaa !33
  %53 = getelementptr inbounds nuw %struct.ASMState, ptr %52, i32 0, i32 6
  %54 = load i32, ptr %53, align 8, !tbaa !84
  %55 = and i32 %54, %51
  store i32 %55, ptr %53, align 8, !tbaa !84
  %56 = load i32, ptr %6, align 4, !tbaa !11
  %57 = shl i32 1, %56
  %58 = xor i32 %57, -1
  %59 = load ptr, ptr %4, align 8, !tbaa !33
  %60 = getelementptr inbounds nuw %struct.ASMState, ptr %59, i32 0, i32 8
  %61 = load i32, ptr %60, align 8, !tbaa !140
  %62 = and i32 %61, %58
  store i32 %62, ptr %60, align 8, !tbaa !140
  %63 = load ptr, ptr %4, align 8, !tbaa !33
  %64 = load ptr, ptr %8, align 8, !tbaa !37
  %65 = load i32, ptr %5, align 4, !tbaa !11
  %66 = load i32, ptr %6, align 4, !tbaa !11
  call void @emit_movrr(ptr noundef %63, ptr noundef %64, i32 noundef %65, i32 noundef %66)
  %67 = load ptr, ptr %4, align 8, !tbaa !33
  %68 = getelementptr inbounds nuw %struct.ASMState, ptr %67, i32 0, i32 3
  %69 = load ptr, ptr %68, align 8, !tbaa !70
  %70 = load i32, ptr %7, align 4, !tbaa !11
  %71 = zext i32 %70 to i64
  %72 = getelementptr inbounds nuw %union.IRIns, ptr %69, i64 %71
  %73 = getelementptr inbounds nuw %struct.anon.0, ptr %72, i32 0, i32 4
  %74 = load i8, ptr %73, align 1, !tbaa !25
  %75 = zext i8 %74 to i32
  %76 = icmp ne i32 %75, 0
  br i1 %76, label %88, label %77

77:                                               ; preds = %3
  %78 = load ptr, ptr %4, align 8, !tbaa !33
  %79 = load i32, ptr %5, align 4, !tbaa !11
  %80 = load i32, ptr %7, align 4, !tbaa !11
  %81 = load ptr, ptr %4, align 8, !tbaa !33
  %82 = getelementptr inbounds nuw %struct.ASMState, ptr %81, i32 0, i32 19
  %83 = load i32, ptr %82, align 4, !tbaa !97
  %84 = load ptr, ptr %4, align 8, !tbaa !33
  %85 = getelementptr inbounds nuw %struct.ASMState, ptr %84, i32 0, i32 21
  %86 = load i32, ptr %85, align 4, !tbaa !98
  %87 = add i32 %83, %86
  call void @ra_addrename(ptr noundef %78, i32 noundef %79, i32 noundef %80, i32 noundef %87)
  br label %88

88:                                               ; preds = %77, %3
  call void @llvm.lifetime.end.p0(i64 8, ptr %8) #11
  call void @llvm.lifetime.end.p0(i64 4, ptr %7) #11
  ret void
}