; Function Attrs: nounwind uwtable
define internal fastcc void @ra_rename(ptr noundef nonnull captures(none) %0, i32 noundef range(i32 0, 256) %1, i32 noundef range(i32 0, 256) %2) unnamed_addr #0 {
  %4 = zext nneg i32 %1 to i64
  %5 = getelementptr inbounds nuw [32 x i32], ptr %0, i64 0, i64 %4
  %6 = load i32, ptr %5, align 4, !tbaa !21
  %7 = zext nneg i32 %2 to i64
  %8 = getelementptr inbounds nuw [32 x i32], ptr %0, i64 0, i64 %7
  store i32 %6, ptr %8, align 4, !tbaa !21
  %9 = and i32 %6, 65535
  %10 = getelementptr inbounds nuw i8, ptr %0, i64 144
  %11 = load ptr, ptr %10, align 8, !tbaa !68
  %12 = zext nneg i32 %9 to i64
  %13 = getelementptr inbounds nuw %union.IRIns, ptr %11, i64 %12
  %14 = trunc nuw i32 %2 to i8
  %15 = getelementptr inbounds nuw i8, ptr %13, i64 6
  store i8 %14, ptr %15, align 2, !tbaa !20
  store i32 0, ptr %5, align 4, !tbaa !21
  %16 = shl nuw i32 1, %1
  %17 = getelementptr inbounds nuw i8, ptr %0, i64 168
  %18 = load i32, ptr %17, align 8, !tbaa !78
  %19 = or i32 %18, %16
  %20 = getelementptr inbounds nuw i8, ptr %0, i64 172
  %21 = load i32, ptr %20, align 4, !tbaa !79
  %22 = or i32 %21, %16
  store i32 %22, ptr %20, align 4, !tbaa !79
  %23 = shl nuw i32 1, %2
  %24 = xor i32 %23, -1
  %25 = and i32 %19, %24
  store i32 %25, ptr %17, align 8, !tbaa !78
  %26 = getelementptr inbounds nuw i8, ptr %0, i64 176
  %27 = load i32, ptr %26, align 8, !tbaa !80
  %28 = and i32 %27, %24
  store i32 %28, ptr %26, align 8, !tbaa !80
  %29 = icmp samesign ult i32 %1, 16
  br i1 %29, label %30, label %59

30:                                               ; preds = %3
  %31 = getelementptr inbounds nuw i8, ptr %13, i64 4
  %32 = load i8, ptr %31, align 4, !tbaa !20
  %33 = and i8 %32, 31
  %34 = zext nneg i8 %33 to i32
  %35 = shl nuw i32 1, %34
  %36 = and i32 %35, 6315993
  %.not.i = icmp eq i32 %36, 0
  %37 = select i1 %.not.i, i32 0, i32 524800
  %38 = or disjoint i32 %37, %1
  %39 = getelementptr inbounds nuw i8, ptr %0, i64 128
  %40 = load ptr, ptr %39, align 8, !tbaa !60
  %41 = shl nuw nsw i32 %1, 3
  %42 = and i32 %2, 7
  %43 = or disjoint i32 %42, %41
  %44 = trunc nuw i32 %43 to i8
  %45 = or i8 %44, -64
  %46 = getelementptr inbounds i8, ptr %40, i64 -1
  store i8 %45, ptr %46, align 1, !tbaa !20
  %47 = getelementptr i8, ptr %40, i64 -2
  store i8 -117, ptr %47, align 1, !tbaa !20
  %48 = lshr i32 %38, 1
  %49 = and i32 %48, 260
  %50 = lshr i32 %2, 3
  %51 = and i32 %50, 1
  %52 = or disjoint i32 %49, %51
  %.not.i.i.i = icmp eq i32 %52, 0
  br i1 %.not.i.i.i, label %emit_rr.exit.i, label %53

53:                                               ; preds = %30
  %54 = lshr i32 %37, 16
  %55 = or disjoint i32 %52, %54
  %56 = trunc i32 %55 to i8
  %57 = or disjoint i8 %56, 64
  %58 = getelementptr i8, ptr %40, i64 -3
  store i8 %57, ptr %58, align 1, !tbaa !20
  br label %emit_rr.exit.i

emit_rr.exit.i:                                   ; preds = %53, %30
  %.046.i.i.i = phi ptr [ %58, %53 ], [ %47, %30 ]
  store ptr %.046.i.i.i, ptr %39, align 8, !tbaa !60
  br label %emit_movrr.exit

59:                                               ; preds = %3
  %60 = getelementptr inbounds nuw i8, ptr %0, i64 128
  %61 = load ptr, ptr %60, align 8, !tbaa !60
  %62 = shl nuw nsw i32 %1, 3
  %63 = and i32 %2, 7
  %64 = or disjoint i32 %63, %62
  %65 = trunc i32 %64 to i8
  %66 = or i8 %65, -64
  %67 = getelementptr inbounds i8, ptr %61, i64 -1
  store i8 %66, ptr %67, align 1, !tbaa !20
  %68 = getelementptr inbounds i8, ptr %61, i64 -3
  store i16 10255, ptr %68, align 2, !tbaa !91
  %69 = lshr i32 %1, 1
  %70 = and i32 %69, 4
  %71 = lshr i32 %2, 3
  %72 = and i32 %71, 1
  %73 = or disjoint i32 %72, %70
  %.not.i.i7.i = icmp eq i32 %73, 0
  br i1 %.not.i.i7.i, label %emit_rr.exit9.i, label %74

74:                                               ; preds = %59
  %75 = trunc nuw nsw i32 %73 to i8
  %76 = or disjoint i8 %75, 64
  %77 = getelementptr inbounds i8, ptr %61, i64 -4
  store i8 %76, ptr %77, align 1, !tbaa !20
  br label %emit_rr.exit9.i

emit_rr.exit9.i:                                  ; preds = %74, %59
  %.046.i.i8.i = phi ptr [ %77, %74 ], [ %68, %59 ]
  store ptr %.046.i.i8.i, ptr %60, align 8, !tbaa !60
  br label %emit_movrr.exit

emit_movrr.exit:                                  ; preds = %emit_rr.exit.i, %emit_rr.exit9.i
  %78 = load ptr, ptr %10, align 8, !tbaa !68
  %79 = getelementptr inbounds nuw %union.IRIns, ptr %78, i64 %12
  %80 = getelementptr inbounds nuw i8, ptr %79, i64 7
  %81 = load i8, ptr %80, align 1, !tbaa !20
  %.not = icmp eq i8 %81, 0
  br i1 %.not, label %82, label %110

82:                                               ; preds = %emit_movrr.exit
  %83 = getelementptr inbounds nuw i8, ptr %0, i64 220
  %84 = load i32, ptr %83, align 4, !tbaa !87
  %85 = getelementptr inbounds nuw i8, ptr %0, i64 228
  %86 = load i32, ptr %85, align 4, !tbaa !88
  %87 = add i32 %86, %84
  %88 = getelementptr inbounds nuw i8, ptr %0, i64 152
  %89 = load ptr, ptr %88, align 8, !tbaa !44
  %90 = trunc i32 %6 to i16
  %91 = trunc i32 %87 to i16
  %92 = getelementptr inbounds nuw i8, ptr %89, i64 184
  %93 = getelementptr inbounds nuw i8, ptr %89, i64 188
  store i16 5120, ptr %93, align 4, !tbaa !20
  store i16 %90, ptr %92, align 8, !tbaa !20
  %94 = getelementptr inbounds nuw i8, ptr %89, i64 186
  store i16 %91, ptr %94, align 2, !tbaa !20
  %95 = load ptr, ptr %88, align 8, !tbaa !44
  %96 = tail call i32 @lj_ir_emit(ptr noundef %95) #14
  %97 = and i32 %96, 65535
  %98 = trunc nuw i32 %1 to i8
  %99 = load ptr, ptr %88, align 8, !tbaa !44
  %100 = getelementptr inbounds nuw i8, ptr %99, i64 32
  %101 = load ptr, ptr %100, align 8, !tbaa !43
  %102 = zext nneg i32 %97 to i64
  %103 = getelementptr inbounds nuw %union.IRIns, ptr %101, i64 %102
  %104 = getelementptr inbounds nuw i8, ptr %103, i64 6
  store i8 %98, ptr %104, align 2, !tbaa !20
  %105 = load ptr, ptr %88, align 8, !tbaa !44
  %106 = getelementptr inbounds nuw i8, ptr %105, i64 32
  %107 = load ptr, ptr %106, align 8, !tbaa !43
  %108 = getelementptr inbounds nuw %union.IRIns, ptr %107, i64 %102
  %109 = getelementptr inbounds nuw i8, ptr %108, i64 7
  store i8 0, ptr %109, align 1, !tbaa !20
  br label %110

110:                                              ; preds = %82, %emit_movrr.exit
  ret void
}